target datalayout = "e-m:e-p270:32:32-p271:32:32-p272:64:64-i64:64-i128:128-f80:128-n8:16:32:64-S128"
target triple = "x86_64-pc-linux-gnu"

%struct.store_engine = type { %union.pthread_mutex_t, ptr, ptr, ptr, ptr, ptr, ptr, ptr, i64, i32, i32, i32, i32, i32, i32, i32, i32, %union.pthread_mutex_t, %struct.extstore_stats, %struct.store_maint }
%union.pthread_mutex_t = type { %struct.__pthread_mutex_s }
%struct.__pthread_mutex_s = type { i32, i32, i32, i32, i32, i16, i16, %struct.__pthread_internal_list }
%struct.__pthread_internal_list = type { ptr, ptr }
%struct.extstore_stats = type { i64, i64, i64, i64, i64, i64, i64, i64, i64, i64, i64, i64, i64, i64, i64, i64, i64, ptr }
%struct.store_maint = type { %union.pthread_mutex_t }
%struct._store_page = type { %union.pthread_mutex_t, i64, i64, i64, i32, i32, i32, i32, i32, i32, i32, i16, i8, i8, i8, ptr, ptr }

; Function Attrs: nounwind uwtable
define dso_local i32 @extstore_check(ptr noundef %0, i32 noundef %1, i64 noundef %2) #0 {
  %4 = alloca ptr, align 8
  %5 = alloca i32, align 4
  %6 = alloca i64, align 8
  %7 = alloca ptr, align 8
  %8 = alloca ptr, align 8
  %9 = alloca i32, align 4
  store ptr %0, ptr %4, align 8, !tbaa !4
  store i32 %1, ptr %5, align 4, !tbaa !27
  store i64 %2, ptr %6, align 8, !tbaa !83
  call void @llvm.lifetime.start.p0(i64 8, ptr %7) #8
  %10 = load ptr, ptr %4, align 8, !tbaa !4
  store ptr %10, ptr %7, align 8, !tbaa !10
  call void @llvm.lifetime.start.p0(i64 8, ptr %8) #8
  %11 = load ptr, ptr %7, align 8, !tbaa !10
  %12 = getelementptr inbounds nuw %struct.store_engine, ptr %11, i32 0, i32 1
  %13 = load ptr, ptr %12, align 8, !tbaa !39
  %14 = load i32, ptr %5, align 4, !tbaa !27
  %15 = zext i32 %14 to i64
  %16 = getelementptr inbounds nuw %struct._store_page, ptr %13, i64 %15
  store ptr %16, ptr %8, align 8, !tbaa !40
  call void @llvm.lifetime.start.p0(i64 4, ptr %9) #8
  store i32 0, ptr %9, align 4, !tbaa !27
  %17 = load ptr, ptr %8, align 8, !tbaa !40
  %18 = getelementptr inbounds nuw %struct._store_page, ptr %17, i32 0, i32 0
  %19 = call i32 @pthread_mutex_lock(ptr noundef %18) #8
  %20 = load ptr, ptr %8, align 8, !tbaa !40
  %21 = getelementptr inbounds nuw %struct._store_page, ptr %20, i32 0, i32 4
  %22 = load i32, ptr %21, align 8, !tbaa !48
  %23 = zext i32 %22 to i64
  %24 = load i64, ptr %6, align 8, !tbaa !83
  %25 = icmp ne i64 %23, %24
  br i1 %25, label %26, label %27

26:                                               ; preds = %3
  store i32 -1, ptr %9, align 4, !tbaa !27
  br label %27

27:                                               ; preds = %26, %3
  %28 = load ptr, ptr %8, align 8, !tbaa !40
  %29 = getelementptr inbounds nuw %struct._store_page, ptr %28, i32 0, i32 0
  %30 = call i32 @pthread_mutex_unlock(ptr noundef %29) #8
  %31 = load i32, ptr %9, align 4, !tbaa !27
  call void @llvm.lifetime.end.p0(i64 4, ptr %9) #8
  call void @llvm.lifetime.end.p0(i64 8, ptr %8) #8
  call void @llvm.lifetime.end.p0(i64 8, ptr %7) #8
  ret i32 %31
}