; Function Attrs: nounwind uwtable
define dso_local range(i32 -1, 1) i32 @extstore_check(ptr noundef readonly captures(none) %0, i32 noundef %1, i64 noundef %2) local_unnamed_addr #0 {
  %4 = getelementptr inbounds nuw i8, ptr %0, i64 40
  %5 = load ptr, ptr %4, align 8, !tbaa !33
  %6 = zext i32 %1 to i64
  %7 = getelementptr inbounds nuw %struct._store_page, ptr %5, i64 %6
  %8 = tail call i32 @pthread_mutex_lock(ptr noundef %7) #13
  %9 = getelementptr inbounds nuw i8, ptr %7, i64 64
  %10 = load i32, ptr %9, align 8, !tbaa !41
  %11 = zext i32 %10 to i64
  %.not = icmp ne i64 %2, %11
  %spec.select = sext i1 %.not to i32
  %12 = tail call i32 @pthread_mutex_unlock(ptr noundef %7) #13
  ret i32 %spec.select
}